; Function Attrs: nounwind uwtable
define internal void @_set_line_attr(ptr noundef %0, ptr noundef %1, ptr nocapture noundef readonly %2) #0 {
  tail call void @_set_attr(ptr noundef %0, ptr noundef %1, ptr noundef %2)
  %4 = load i8, ptr %2, align 8, !tbaa !163
  switch i8 %4, label %21 [
    i8 20, label %5
    i8 21, label %9
    i8 22, label %13
    i8 23, label %17
  ]

5:                                                ; preds = %3
  %6 = getelementptr inbounds nuw i8, ptr %2, i64 8
  %7 = load float, ptr %6, align 8, !tbaa !165
  %8 = getelementptr inbounds nuw i8, ptr %0, i64 576
  store float %7, ptr %8, align 8, !tbaa !182
  br label %21

9:                                                ; preds = %3
  %10 = getelementptr inbounds nuw i8, ptr %2, i64 8
  %11 = load float, ptr %10, align 8, !tbaa !165
  %12 = getelementptr inbounds nuw i8, ptr %0, i64 580
  store float %11, ptr %12, align 4, !tbaa !183
  br label %21

13:                                               ; preds = %3
  %14 = getelementptr inbounds nuw i8, ptr %2, i64 8
  %15 = load float, ptr %14, align 8, !tbaa !165
  %16 = getelementptr inbounds nuw i8, ptr %0, i64 584
  store float %15, ptr %16, align 8, !tbaa !184
  br label %21

17:                                               ; preds = %3
  %18 = getelementptr inbounds nuw i8, ptr %2, i64 8
  %19 = load float, ptr %18, align 8, !tbaa !165
  %20 = getelementptr inbounds nuw i8, ptr %0, i64 588
  store float %19, ptr %20, align 4, !tbaa !185
  br label %21

21:                                               ; preds = %17, %13, %9, %5, %3
  ret void
}